target datalayout = "e-m:e-p270:32:32-p271:32:32-p272:64:64-i64:64-i128:128-f80:128-n8:16:32:64-S128"
target triple = "x86_64-pc-linux-gnu"

%struct.CONF_VALUE = type { ptr, ptr, ptr }

@.str.1 = private unnamed_addr constant [31 x i8] c"../openssl/crypto/ts/ts_conf.c\00", align 1
@.str.16 = private unnamed_addr constant [9 x i8] c"accuracy\00", align 1
@.str.17 = private unnamed_addr constant [5 x i8] c"secs\00", align 1
@.str.18 = private unnamed_addr constant [10 x i8] c"millisecs\00", align 1
@.str.19 = private unnamed_addr constant [10 x i8] c"microsecs\00", align 1
@.str.26 = private unnamed_addr constant [7 x i8] c"%s::%s\00", align 1
@__func__.ts_CONF_invalid = private unnamed_addr constant [16 x i8] c"ts_CONF_invalid\00", align 1

; Function Attrs: inlinehint nounwind uwtable
define internal ptr @ossl_check_CONF_VALUE_freefunc_type(ptr noundef %0) #3 {
  %2 = alloca ptr, align 8
  store ptr %0, ptr %2, align 8, !tbaa !28
  %3 = load ptr, ptr %2, align 8, !tbaa !28
  ret ptr %3
}

; Function Attrs: inlinehint nounwind uwtable
define internal ptr @ossl_check_CONF_VALUE_sk_type(ptr noundef %0) #3 {
  %2 = alloca ptr, align 8
  store ptr %0, ptr %2, align 8, !tbaa !41
  %3 = load ptr, ptr %2, align 8, !tbaa !41
  ret ptr %3
}

; Function Attrs: inlinehint nounwind willreturn memory(read) uwtable
define available_externally i32 @atoi(ptr noundef nonnull %0) #5 {
  %2 = alloca ptr, align 8
  store ptr %0, ptr %2, align 8, !tbaa !3
  %3 = load ptr, ptr %2, align 8, !tbaa !3
  %4 = call i64 @strtol(ptr noundef %3, ptr noundef null, i32 noundef 10) #7
  %5 = trunc i64 %4 to i32
  ret i32 %5
}

; Function Attrs: inlinehint nounwind uwtable
define internal ptr @ossl_check_const_CONF_VALUE_sk_type(ptr noundef %0) #3 {
  %2 = alloca ptr, align 8
  store ptr %0, ptr %2, align 8, !tbaa !41
  %3 = load ptr, ptr %2, align 8, !tbaa !41
  ret ptr %3
}

; Function Attrs: nounwind uwtable
define internal void @ts_CONF_invalid(ptr noundef %0, ptr noundef %1) #0 {
  %3 = alloca ptr, align 8
  %4 = alloca ptr, align 8
  store ptr %0, ptr %3, align 8, !tbaa !3
  store ptr %1, ptr %4, align 8, !tbaa !3
  call void @ERR_new()
  call void @ERR_set_debug(ptr noundef @.str.1, i32 noundef 132, ptr noundef @__func__.ts_CONF_invalid)
  %5 = load ptr, ptr %3, align 8, !tbaa !3
  %6 = load ptr, ptr %4, align 8, !tbaa !3
  call void (i32, i32, ptr, ...) @ERR_set_error(i32 noundef 47, i32 noundef 135, ptr noundef @.str.26, ptr noundef %5, ptr noundef %6)
  ret void
}

; Function Attrs: nounwind uwtable
define i32 @TS_CONF_set_accuracy(ptr noundef %0, ptr noundef %1, ptr noundef %2) #0 {
  %4 = alloca i32, align 4
  %5 = alloca ptr, align 8
  %6 = alloca ptr, align 8
  %7 = alloca ptr, align 8
  %8 = alloca i32, align 4
  %9 = alloca i32, align 4
  %10 = alloca i32, align 4
  %11 = alloca i32, align 4
  %12 = alloca i32, align 4
  %13 = alloca ptr, align 8
  %14 = alloca ptr, align 8
  %15 = alloca ptr, align 8
  %16 = alloca i32, align 4
  store ptr %0, ptr %5, align 8, !tbaa !31
  store ptr %1, ptr %6, align 8, !tbaa !3
  store ptr %2, ptr %7, align 8, !tbaa !33
  call void @llvm.lifetime.start.p0(i64 4, ptr %8) #7
  store i32 0, ptr %8, align 4, !tbaa !16
  call void @llvm.lifetime.start.p0(i64 4, ptr %9) #7
  call void @llvm.lifetime.start.p0(i64 4, ptr %10) #7
  store i32 0, ptr %10, align 4, !tbaa !16
  call void @llvm.lifetime.start.p0(i64 4, ptr %11) #7
  store i32 0, ptr %11, align 4, !tbaa !16
  call void @llvm.lifetime.start.p0(i64 4, ptr %12) #7
  store i32 0, ptr %12, align 4, !tbaa !16
  call void @llvm.lifetime.start.p0(i64 8, ptr %13) #7
  store ptr null, ptr %13, align 8, !tbaa !41
  call void @llvm.lifetime.start.p0(i64 8, ptr %14) #7
  %17 = load ptr, ptr %5, align 8, !tbaa !31
  %18 = load ptr, ptr %6, align 8, !tbaa !3
  %19 = call ptr @NCONF_get_string(ptr noundef %17, ptr noundef %18, ptr noundef @.str.16)
  store ptr %19, ptr %14, align 8, !tbaa !3
  %20 = load ptr, ptr %14, align 8, !tbaa !3
  %21 = icmp ne ptr %20, null
  br i1 %21, label %22, label %28

22:                                               ; preds = %3
  %23 = load ptr, ptr %14, align 8, !tbaa !3
  %24 = call ptr @X509V3_parse_list(ptr noundef %23)
  store ptr %24, ptr %13, align 8, !tbaa !41
  %25 = icmp eq ptr %24, null
  br i1 %25, label %26, label %28

26:                                               ; preds = %22
  %27 = load ptr, ptr %6, align 8, !tbaa !3
  call void @ts_CONF_invalid(ptr noundef %27, ptr noundef @.str.16)
  br label %110

28:                                               ; preds = %22, %3
  store i32 0, ptr %9, align 4, !tbaa !16
  br label %29

29:                                               ; preds = %98, %28
  %30 = load i32, ptr %9, align 4, !tbaa !16
  %31 = load ptr, ptr %13, align 8, !tbaa !41
  %32 = call ptr @ossl_check_const_CONF_VALUE_sk_type(ptr noundef %31)
  %33 = call i32 @OPENSSL_sk_num(ptr noundef %32)
  %34 = icmp slt i32 %30, %33
  br i1 %34, label %35, label %101

35:                                               ; preds = %29
  call void @llvm.lifetime.start.p0(i64 8, ptr %15) #7
  %36 = load ptr, ptr %13, align 8, !tbaa !41
  %37 = call ptr @ossl_check_const_CONF_VALUE_sk_type(ptr noundef %36)
  %38 = load i32, ptr %9, align 4, !tbaa !16
  %39 = call ptr @OPENSSL_sk_value(ptr noundef %37, i32 noundef %38)
  store ptr %39, ptr %15, align 8, !tbaa !28
  %40 = load ptr, ptr %15, align 8, !tbaa !28
  %41 = getelementptr inbounds nuw %struct.CONF_VALUE, ptr %40, i32 0, i32 1
  %42 = load ptr, ptr %41, align 8, !tbaa !45
  %43 = call i32 @strcmp(ptr noundef %42, ptr noundef @.str.17) #8
  %44 = icmp eq i32 %43, 0
  br i1 %44, label %45, label %56

45:                                               ; preds = %35
  %46 = load ptr, ptr %15, align 8, !tbaa !28
  %47 = getelementptr inbounds nuw %struct.CONF_VALUE, ptr %46, i32 0, i32 2
  %48 = load ptr, ptr %47, align 8, !tbaa !43
  %49 = icmp ne ptr %48, null
  br i1 %49, label %50, label %55

50:                                               ; preds = %45
  %51 = load ptr, ptr %15, align 8, !tbaa !28
  %52 = getelementptr inbounds nuw %struct.CONF_VALUE, ptr %51, i32 0, i32 2
  %53 = load ptr, ptr %52, align 8, !tbaa !43
  %54 = call i32 @atoi(ptr noundef %53) #8
  store i32 %54, ptr %10, align 4, !tbaa !16
  br label %55

55:                                               ; preds = %50, %45
  br label %94

56:                                               ; preds = %35
  %57 = load ptr, ptr %15, align 8, !tbaa !28
  %58 = getelementptr inbounds nuw %struct.CONF_VALUE, ptr %57, i32 0, i32 1
  %59 = load ptr, ptr %58, align 8, !tbaa !45
  %60 = call i32 @strcmp(ptr noundef %59, ptr noundef @.str.18) #8
  %61 = icmp eq i32 %60, 0
  br i1 %61, label %62, label %73

62:                                               ; preds = %56
  %63 = load ptr, ptr %15, align 8, !tbaa !28
  %64 = getelementptr inbounds nuw %struct.CONF_VALUE, ptr %63, i32 0, i32 2
  %65 = load ptr, ptr %64, align 8, !tbaa !43
  %66 = icmp ne ptr %65, null
  br i1 %66, label %67, label %72

67:                                               ; preds = %62
  %68 = load ptr, ptr %15, align 8, !tbaa !28
  %69 = getelementptr inbounds nuw %struct.CONF_VALUE, ptr %68, i32 0, i32 2
  %70 = load ptr, ptr %69, align 8, !tbaa !43
  %71 = call i32 @atoi(ptr noundef %70) #8
  store i32 %71, ptr %11, align 4, !tbaa !16
  br label %72

72:                                               ; preds = %67, %62
  br label %93

73:                                               ; preds = %56
  %74 = load ptr, ptr %15, align 8, !tbaa !28
  %75 = getelementptr inbounds nuw %struct.CONF_VALUE, ptr %74, i32 0, i32 1
  %76 = load ptr, ptr %75, align 8, !tbaa !45
  %77 = call i32 @strcmp(ptr noundef %76, ptr noundef @.str.19) #8
  %78 = icmp eq i32 %77, 0
  br i1 %78, label %79, label %90

79:                                               ; preds = %73
  %80 = load ptr, ptr %15, align 8, !tbaa !28
  %81 = getelementptr inbounds nuw %struct.CONF_VALUE, ptr %80, i32 0, i32 2
  %82 = load ptr, ptr %81, align 8, !tbaa !43
  %83 = icmp ne ptr %82, null
  br i1 %83, label %84, label %89

84:                                               ; preds = %79
  %85 = load ptr, ptr %15, align 8, !tbaa !28
  %86 = getelementptr inbounds nuw %struct.CONF_VALUE, ptr %85, i32 0, i32 2
  %87 = load ptr, ptr %86, align 8, !tbaa !43
  %88 = call i32 @atoi(ptr noundef %87) #8
  store i32 %88, ptr %12, align 4, !tbaa !16
  br label %89

89:                                               ; preds = %84, %79
  br label %92

90:                                               ; preds = %73
  %91 = load ptr, ptr %6, align 8, !tbaa !3
  call void @ts_CONF_invalid(ptr noundef %91, ptr noundef @.str.16)
  store i32 2, ptr %16, align 4
  br label %95

92:                                               ; preds = %89
  br label %93

93:                                               ; preds = %92, %72
  br label %94

94:                                               ; preds = %93, %55
  store i32 0, ptr %16, align 4
  br label %95

95:                                               ; preds = %90, %94
  call void @llvm.lifetime.end.p0(i64 8, ptr %15) #7
  %96 = load i32, ptr %16, align 4
  switch i32 %96, label %115 [
    i32 0, label %97
    i32 2, label %110
  ]

97:                                               ; preds = %95
  br label %98

98:                                               ; preds = %97
  %99 = load i32, ptr %9, align 4, !tbaa !16
  %100 = add nsw i32 %99, 1
  store i32 %100, ptr %9, align 4, !tbaa !16
  br label %29, !llvm.loop !48

101:                                              ; preds = %29
  %102 = load ptr, ptr %7, align 8, !tbaa !33
  %103 = load i32, ptr %10, align 4, !tbaa !16
  %104 = load i32, ptr %11, align 4, !tbaa !16
  %105 = load i32, ptr %12, align 4, !tbaa !16
  %106 = call i32 @TS_RESP_CTX_set_accuracy(ptr noundef %102, i32 noundef %103, i32 noundef %104, i32 noundef %105)
  %107 = icmp ne i32 %106, 0
  br i1 %107, label %109, label %108

108:                                              ; preds = %101
  br label %110

109:                                              ; preds = %101
  store i32 1, ptr %8, align 4, !tbaa !16
  br label %110

110:                                              ; preds = %109, %95, %108, %26
  %111 = load ptr, ptr %13, align 8, !tbaa !41
  %112 = call ptr @ossl_check_CONF_VALUE_sk_type(ptr noundef %111)
  %113 = call ptr @ossl_check_CONF_VALUE_freefunc_type(ptr noundef @X509V3_conf_free)
  call void @OPENSSL_sk_pop_free(ptr noundef %112, ptr noundef %113)
  %114 = load i32, ptr %8, align 4, !tbaa !16
  store i32 %114, ptr %4, align 4
  store i32 1, ptr %16, align 4
  br label %115

115:                                              ; preds = %110, %95
  call void @llvm.lifetime.end.p0(i64 8, ptr %14) #7
  call void @llvm.lifetime.end.p0(i64 8, ptr %13) #7
  call void @llvm.lifetime.end.p0(i64 4, ptr %12) #7
  call void @llvm.lifetime.end.p0(i64 4, ptr %11) #7
  call void @llvm.lifetime.end.p0(i64 4, ptr %10) #7
  call void @llvm.lifetime.end.p0(i64 4, ptr %9) #7
  call void @llvm.lifetime.end.p0(i64 4, ptr %8) #7
  %116 = load i32, ptr %4, align 4
  ret i32 %116
}