; Function Attrs: nounwind uwtable
define range(i32 0, 2) i32 @TS_CONF_set_accuracy(ptr noundef %0, ptr noundef %1, ptr noundef %2) local_unnamed_addr #0 {
  %4 = tail call ptr @NCONF_get_string(ptr noundef %0, ptr noundef %1, ptr noundef nonnull @.str.16) #4
  %.not = icmp eq ptr %4, null
  br i1 %.not, label %9, label %5

5:                                                ; preds = %3
  %6 = tail call ptr @X509V3_parse_list(ptr noundef nonnull %4) #4
  %7 = icmp eq ptr %6, null
  br i1 %7, label %8, label %9

8:                                                ; preds = %5
  tail call void @ERR_new() #4
  tail call void @ERR_set_debug(ptr noundef nonnull @.str.1, i32 noundef 132, ptr noundef nonnull @__func__.ts_CONF_invalid) #4
  tail call void (i32, i32, ptr, ...) @ERR_set_error(i32 noundef 47, i32 noundef 135, ptr noundef nonnull @.str.26, ptr noundef %1, ptr noundef nonnull @.str.16) #4
  br label %47

9:                                                ; preds = %5, %3
  %.029 = phi ptr [ %6, %5 ], [ null, %3 ]
  %10 = tail call i32 @OPENSSL_sk_num(ptr noundef %.029) #4
  %11 = icmp sgt i32 %10, 0
  br i1 %11, label %.lr.ph, label %._crit_edge

.lr.ph:                                           ; preds = %9, %42
  %.03064 = phi i32 [ %.2.ph, %42 ], [ 0, %9 ]
  %.03263 = phi i32 [ %.234.ph, %42 ], [ 0, %9 ]
  %.03562 = phi i32 [ %.237.ph, %42 ], [ 0, %9 ]
  %.03861 = phi i32 [ %43, %42 ], [ 0, %9 ]
  %12 = tail call ptr @OPENSSL_sk_value(ptr noundef %.029, i32 noundef %.03861) #4
  %13 = getelementptr inbounds nuw i8, ptr %12, i64 8
  %14 = load ptr, ptr %13, align 8, !tbaa !19
  %15 = tail call i32 @strcmp(ptr noundef nonnull dereferenceable(1) %14, ptr noundef nonnull dereferenceable(5) @.str.17) #5
  %16 = icmp eq i32 %15, 0
  br i1 %16, label %17, label %23

17:                                               ; preds = %.lr.ph
  %18 = getelementptr inbounds nuw i8, ptr %12, i64 16
  %19 = load ptr, ptr %18, align 8, !tbaa !17
  %.not48 = icmp eq ptr %19, null
  br i1 %.not48, label %42, label %20

20:                                               ; preds = %17
  %21 = tail call i64 @strtol(ptr noundef nonnull captures(none) %19, ptr noundef null, i32 noundef 10) #4
  %22 = trunc i64 %21 to i32
  br label %42

23:                                               ; preds = %.lr.ph
  %24 = tail call i32 @strcmp(ptr noundef nonnull dereferenceable(1) %14, ptr noundef nonnull dereferenceable(10) @.str.18) #5
  %25 = icmp eq i32 %24, 0
  br i1 %25, label %26, label %32

26:                                               ; preds = %23
  %27 = getelementptr inbounds nuw i8, ptr %12, i64 16
  %28 = load ptr, ptr %27, align 8, !tbaa !17
  %.not47 = icmp eq ptr %28, null
  br i1 %.not47, label %42, label %29

29:                                               ; preds = %26
  %30 = tail call i64 @strtol(ptr noundef nonnull captures(none) %28, ptr noundef null, i32 noundef 10) #4
  %31 = trunc i64 %30 to i32
  br label %42

32:                                               ; preds = %23
  %33 = tail call i32 @strcmp(ptr noundef nonnull dereferenceable(1) %14, ptr noundef nonnull dereferenceable(10) @.str.19) #5
  %34 = icmp eq i32 %33, 0
  br i1 %34, label %35, label %41

35:                                               ; preds = %32
  %36 = getelementptr inbounds nuw i8, ptr %12, i64 16
  %37 = load ptr, ptr %36, align 8, !tbaa !17
  %.not46 = icmp eq ptr %37, null
  br i1 %.not46, label %42, label %38

38:                                               ; preds = %35
  %39 = tail call i64 @strtol(ptr noundef nonnull captures(none) %37, ptr noundef null, i32 noundef 10) #4
  %40 = trunc i64 %39 to i32
  br label %42

41:                                               ; preds = %32
  tail call void @ERR_new() #4
  tail call void @ERR_set_debug(ptr noundef nonnull @.str.1, i32 noundef 132, ptr noundef nonnull @__func__.ts_CONF_invalid) #4
  tail call void (i32, i32, ptr, ...) @ERR_set_error(i32 noundef 47, i32 noundef 135, ptr noundef nonnull @.str.26, ptr noundef %1, ptr noundef nonnull @.str.16) #4
  br label %47

42:                                               ; preds = %29, %26, %35, %38, %17, %20
  %.237.ph = phi i32 [ %.03562, %35 ], [ %.03562, %38 ], [ %.03562, %26 ], [ %.03562, %29 ], [ %.03562, %17 ], [ %22, %20 ]
  %.234.ph = phi i32 [ %.03263, %35 ], [ %.03263, %38 ], [ %.03263, %26 ], [ %31, %29 ], [ %.03263, %17 ], [ %.03263, %20 ]
  %.2.ph = phi i32 [ %.03064, %35 ], [ %40, %38 ], [ %.03064, %26 ], [ %.03064, %29 ], [ %.03064, %17 ], [ %.03064, %20 ]
  %43 = add nuw nsw i32 %.03861, 1
  %44 = tail call i32 @OPENSSL_sk_num(ptr noundef %.029) #4
  %45 = icmp slt i32 %43, %44
  br i1 %45, label %.lr.ph, label %._crit_edge, !llvm.loop !22

._crit_edge:                                      ; preds = %42, %9
  %.035.lcssa = phi i32 [ 0, %9 ], [ %.237.ph, %42 ]
  %.032.lcssa = phi i32 [ 0, %9 ], [ %.234.ph, %42 ]
  %.030.lcssa = phi i32 [ 0, %9 ], [ %.2.ph, %42 ]
  %46 = tail call i32 @TS_RESP_CTX_set_accuracy(ptr noundef %2, i32 noundef %.035.lcssa, i32 noundef %.032.lcssa, i32 noundef %.030.lcssa) #4
  %.not45 = icmp ne i32 %46, 0
  %spec.select = zext i1 %.not45 to i32
  br label %47

47:                                               ; preds = %41, %._crit_edge, %8
  %.1 = phi ptr [ null, %8 ], [ %.029, %41 ], [ %.029, %._crit_edge ]
  %.028 = phi i32 [ 0, %8 ], [ 0, %41 ], [ %spec.select, %._crit_edge ]
  tail call void @OPENSSL_sk_pop_free(ptr noundef %.1, ptr noundef nonnull @X509V3_conf_free) #4
  ret i32 %.028
}